; Function Attrs: nounwind uwtable
define internal range(i32 -30, 1) i32 @archive_compressor_bzip2_write(ptr noundef readonly captures(none) %0, ptr noundef %1, i64 noundef %2) #0 {
  %4 = getelementptr inbounds nuw i8, ptr %0, i64 72
  %5 = load ptr, ptr %4, align 8, !tbaa !13
  %6 = getelementptr inbounds nuw i8, ptr %5, i64 88
  %7 = load i64, ptr %6, align 8, !tbaa !36
  %8 = add i64 %7, %2
  store i64 %8, ptr %6, align 8, !tbaa !36
  %9 = getelementptr inbounds nuw i8, ptr %5, i64 8
  store ptr %1, ptr %9, align 8, !tbaa !37
  %10 = trunc i64 %2 to i32
  %11 = getelementptr inbounds nuw i8, ptr %5, i64 16
  store i32 %10, ptr %11, align 8, !tbaa !38
  %12 = getelementptr inbounds nuw i8, ptr %5, i64 40
  %13 = getelementptr inbounds nuw i8, ptr %0, i64 16
  %14 = getelementptr inbounds nuw i8, ptr %5, i64 96
  %15 = getelementptr inbounds nuw i8, ptr %5, i64 104
  %16 = getelementptr inbounds nuw i8, ptr %5, i64 32
  br label %.split.us.i

.split.us.i:                                      ; preds = %.split.us.i.backedge, %3
  %17 = load i32, ptr %12, align 8, !tbaa !24
  %18 = icmp eq i32 %17, 0
  br i1 %18, label %19, label %28

19:                                               ; preds = %.split.us.i
  %20 = load ptr, ptr %13, align 8, !tbaa !25
  %21 = load ptr, ptr %14, align 8, !tbaa !26
  %22 = load i64, ptr %15, align 8, !tbaa !27
  %23 = tail call i32 @__archive_write_filter(ptr noundef %20, ptr noundef %21, i64 noundef %22) #9
  %.not.us.i = icmp eq i32 %23, 0
  br i1 %.not.us.i, label %24, label %drive_compressor.exit

24:                                               ; preds = %19
  %25 = load ptr, ptr %14, align 8, !tbaa !26
  store ptr %25, ptr %16, align 8, !tbaa !28
  %26 = load i64, ptr %15, align 8, !tbaa !27
  %27 = trunc i64 %26 to i32
  store i32 %27, ptr %12, align 8, !tbaa !24
  br label %28

28:                                               ; preds = %24, %.split.us.i
  %29 = load i32, ptr %11, align 8, !tbaa !38
  %30 = icmp eq i32 %29, 0
  br i1 %30, label %drive_compressor.exit, label %31

31:                                               ; preds = %28
  %32 = tail call i32 @BZ2_bzCompress(ptr noundef nonnull %9, i32 noundef 0) #9
  switch i32 %32, label %.split20.us.i [
    i32 1, label %33
    i32 3, label %.split.us.i.backedge
    i32 4, label %drive_compressor.exit
  ]

33:                                               ; preds = %31
  %34 = load i32, ptr %11, align 8, !tbaa !38
  %35 = icmp eq i32 %34, 0
  br i1 %35, label %drive_compressor.exit, label %.split.us.i.backedge

.split.us.i.backedge:                             ; preds = %33, %31
  br label %.split.us.i

.split20.us.i:                                    ; preds = %31
  %36 = getelementptr inbounds nuw i8, ptr %0, i64 8
  %37 = load ptr, ptr %36, align 8, !tbaa !29
  tail call void (ptr, i32, ptr, ...) @archive_set_error(ptr noundef %37, i32 noundef 22, ptr noundef nonnull @.str.9, i32 noundef %32) #9
  br label %drive_compressor.exit

drive_compressor.exit:                            ; preds = %28, %33, %31, %19, %.split20.us.i
  %38 = phi i32 [ -30, %.split20.us.i ], [ 0, %28 ], [ 0, %33 ], [ 0, %31 ], [ -30, %19 ]
  ret i32 %38
}